; Function Attrs: mustprogress nofree norecurse nosync nounwind willreturn memory(readwrite, inaccessiblemem: write) uwtable
define internal noundef nonnull ptr @_ZN6evmone8advanced12_GLOBAL__N_12opIXadL_ZNS0_5instr4implILNS_6OpcodeE135EXadL_ZNS_5instr4core3dupILi8EEEvNS_8StackTopEEEEEvRNS0_22AdvancedExecutionStateEEEEEPKNS0_11InstructionESE_SB_(ptr noundef readnone captures(ret: address, provenance) %0, ptr noundef nonnull align 8 captures(none) dereferenceable(564) %1) #5 {
  %3 = getelementptr inbounds nuw i8, ptr %1, i64 552
  %.sroa.0.0.copyload.i = load ptr, ptr %3, align 8, !tbaa !57
  %4 = getelementptr inbounds i8, ptr %.sroa.0.0.copyload.i, i64 -256
  tail call void @llvm.memcpy.p0.p0.i64(ptr noundef nonnull align 8 dereferenceable(32) %.sroa.0.0.copyload.i, ptr noundef nonnull align 8 dereferenceable(32) %4, i64 32, i1 false), !tbaa.struct !79
  %5 = load ptr, ptr %3, align 8, !tbaa !67
  %6 = getelementptr inbounds nuw i8, ptr %5, i64 32
  call void @llvm.assume(i1 true) [ "align"(ptr %6, i64 32) ]
  %7 = ptrtoint ptr %6 to i64
  store i64 %7, ptr %3, align 8, !tbaa !57
  %8 = getelementptr inbounds nuw i8, ptr %0, i64 16
  ret ptr %8
}